target datalayout = "e-m:e-p270:32:32-p271:32:32-p272:64:64-i64:64-i128:128-f80:128-n8:16:32:64-S128"
target triple = "x86_64-pc-linux-gnu"

%struct.SyncRepStandbyData = type { i32, i64, i64, i64, i32, i32, i8 }

; Function Attrs: nounwind uwtable
define internal i32 @standby_priority_comparator(ptr noundef %0, ptr noundef %1) #0 {
  %3 = alloca i32, align 4
  %4 = alloca ptr, align 8
  %5 = alloca ptr, align 8
  %6 = alloca ptr, align 8
  %7 = alloca ptr, align 8
  %8 = alloca i32, align 4
  store ptr %0, ptr %4, align 8
  store ptr %1, ptr %5, align 8
  call void @llvm.lifetime.start.p0(i64 8, ptr %6) #8
  %9 = load ptr, ptr %4, align 8
  store ptr %9, ptr %6, align 8
  call void @llvm.lifetime.start.p0(i64 8, ptr %7) #8
  %10 = load ptr, ptr %5, align 8
  store ptr %10, ptr %7, align 8
  %11 = load ptr, ptr %6, align 8
  %12 = getelementptr inbounds nuw %struct.SyncRepStandbyData, ptr %11, i32 0, i32 4
  %13 = load i32, ptr %12, align 8
  %14 = load ptr, ptr %7, align 8
  %15 = getelementptr inbounds nuw %struct.SyncRepStandbyData, ptr %14, i32 0, i32 4
  %16 = load i32, ptr %15, align 8
  %17 = icmp ne i32 %13, %16
  br i1 %17, label %18, label %26

18:                                               ; preds = %2
  %19 = load ptr, ptr %6, align 8
  %20 = getelementptr inbounds nuw %struct.SyncRepStandbyData, ptr %19, i32 0, i32 4
  %21 = load i32, ptr %20, align 8
  %22 = load ptr, ptr %7, align 8
  %23 = getelementptr inbounds nuw %struct.SyncRepStandbyData, ptr %22, i32 0, i32 4
  %24 = load i32, ptr %23, align 8
  %25 = sub i32 %21, %24
  store i32 %25, ptr %3, align 4
  store i32 1, ptr %8, align 4
  br label %34

26:                                               ; preds = %2
  %27 = load ptr, ptr %6, align 8
  %28 = getelementptr inbounds nuw %struct.SyncRepStandbyData, ptr %27, i32 0, i32 5
  %29 = load i32, ptr %28, align 4
  %30 = load ptr, ptr %7, align 8
  %31 = getelementptr inbounds nuw %struct.SyncRepStandbyData, ptr %30, i32 0, i32 5
  %32 = load i32, ptr %31, align 4
  %33 = sub i32 %29, %32
  store i32 %33, ptr %3, align 4
  store i32 1, ptr %8, align 4
  br label %34

34:                                               ; preds = %26, %18
  call void @llvm.lifetime.end.p0(i64 8, ptr %7) #8
  call void @llvm.lifetime.end.p0(i64 8, ptr %6) #8
  %35 = load i32, ptr %3, align 4
  ret i32 %35
}