; Function Attrs: mustprogress nofree norecurse nosync nounwind willreturn memory(argmem: read) uwtable
define internal i32 @standby_priority_comparator(ptr noundef readonly captures(none) %0, ptr noundef readonly captures(none) %1) #3 {
  %3 = getelementptr inbounds nuw i8, ptr %0, i64 32
  %4 = load i32, ptr %3, align 8
  %5 = getelementptr inbounds nuw i8, ptr %1, i64 32
  %6 = load i32, ptr %5, align 8
  %.not = icmp eq i32 %4, %6
  br i1 %.not, label %9, label %7

7:                                                ; preds = %2
  %8 = sub i32 %4, %6
  br label %15

9:                                                ; preds = %2
  %10 = getelementptr inbounds nuw i8, ptr %0, i64 36
  %11 = load i32, ptr %10, align 4
  %12 = getelementptr inbounds nuw i8, ptr %1, i64 36
  %13 = load i32, ptr %12, align 4
  %14 = sub i32 %11, %13
  br label %15

15:                                               ; preds = %9, %7
  %.0 = phi i32 [ %8, %7 ], [ %14, %9 ]
  ret i32 %.0
}